target datalayout = "e-m:e-p270:32:32-p271:32:32-p272:64:64-i64:64-i128:128-f80:128-n8:16:32:64-S128"
target triple = "x86_64-pc-linux-gnu"

%class.btConvexTriangleMeshShape = type { %class.btPolyhedralConvexAabbCachingShape.base, ptr }
%class.btPolyhedralConvexAabbCachingShape.base = type <{ %class.btPolyhedralConvexShape, %class.btVector3, %class.btVector3, i8 }>
%class.btPolyhedralConvexShape = type { %class.btConvexInternalShape, ptr }
%class.btConvexInternalShape = type { %class.btConvexShape, %class.btVector3, %class.btVector3, float, float }
%class.btConvexShape = type { %class.btCollisionShape }
%class.btCollisionShape = type { ptr, i32, ptr, i32, i32 }
%class.btVector3 = type { [4 x float] }
%class.LocalSupportVertexCallback = type <{ %class.btInternalTriangleIndexCallback, %class.btVector3, float, %class.btVector3, [4 x i8] }>
%class.btInternalTriangleIndexCallback = type { ptr }

@_ZTV31btInternalTriangleIndexCallback = available_externally unnamed_addr constant { [5 x ptr] } { [5 x ptr] [ptr null, ptr @_ZTI31btInternalTriangleIndexCallback, ptr @_ZN31btInternalTriangleIndexCallbackD1Ev, ptr @_ZN31btInternalTriangleIndexCallbackD0Ev, ptr @__cxa_pure_virtual] }, align 8

; Function Attrs: inlinehint mustprogress nounwind uwtable
define linkonce_odr dso_local void @_ZN31btInternalTriangleIndexCallbackC2Ev(ptr noundef nonnull align 8 dereferenceable(8) %0) unnamed_addr #6 comdat align 2 {
  %2 = alloca ptr, align 8
  store ptr %0, ptr %2, align 8, !tbaa !76
  %3 = load ptr, ptr %2, align 8
  store ptr getelementptr inbounds inrange(-16, 24) ({ [5 x ptr] }, ptr @_ZTV31btInternalTriangleIndexCallback, i32 0, i32 0, i32 2), ptr %3, align 8, !tbaa !18
  ret void
}

; Function Attrs: mustprogress nounwind uwtable
define linkonce_odr dso_local { <2 x float>, <2 x float> } @_ZN26LocalSupportVertexCallback21GetSupportVertexLocalEv(ptr noundef nonnull align 8 dereferenceable(44) %0) #1 comdat align 2 {
  %2 = alloca %class.btVector3, align 4
  %3 = alloca ptr, align 8
  store ptr %0, ptr %3, align 8, !tbaa !39
  %4 = load ptr, ptr %3, align 8
  %5 = getelementptr inbounds nuw %class.LocalSupportVertexCallback, ptr %4, i32 0, i32 1
  call void @llvm.memcpy.p0.p0.i64(ptr align 4 %2, ptr align 8 %5, i64 16, i1 false), !tbaa.struct !36
  %6 = getelementptr inbounds nuw %class.btVector3, ptr %2, i32 0, i32 0
  %7 = load { <2 x float>, <2 x float> }, ptr %6, align 4
  ret { <2 x float>, <2 x float> } %7
}

; Function Attrs: inlinehint mustprogress uwtable
define linkonce_odr dso_local { <2 x float>, <2 x float> } @_ZngRK9btVector3(ptr noundef nonnull align 4 dereferenceable(16) %0) #8 comdat {
  %2 = alloca %class.btVector3, align 4
  %3 = alloca ptr, align 8
  %4 = alloca float, align 4
  %5 = alloca float, align 4
  %6 = alloca float, align 4
  store ptr %0, ptr %3, align 8, !tbaa !33
  call void @llvm.lifetime.start.p0(i64 4, ptr %4) #14
  %7 = load ptr, ptr %3, align 8, !tbaa !33
  %8 = getelementptr inbounds nuw %class.btVector3, ptr %7, i32 0, i32 0
  %9 = getelementptr inbounds [4 x float], ptr %8, i64 0, i64 0
  %10 = load float, ptr %9, align 4, !tbaa !35
  %11 = fneg float %10
  store float %11, ptr %4, align 4, !tbaa !35
  call void @llvm.lifetime.start.p0(i64 4, ptr %5) #14
  %12 = load ptr, ptr %3, align 8, !tbaa !33
  %13 = getelementptr inbounds nuw %class.btVector3, ptr %12, i32 0, i32 0
  %14 = getelementptr inbounds [4 x float], ptr %13, i64 0, i64 1
  %15 = load float, ptr %14, align 4, !tbaa !35
  %16 = fneg float %15
  store float %16, ptr %5, align 4, !tbaa !35
  call void @llvm.lifetime.start.p0(i64 4, ptr %6) #14
  %17 = load ptr, ptr %3, align 8, !tbaa !33
  %18 = getelementptr inbounds nuw %class.btVector3, ptr %17, i32 0, i32 0
  %19 = getelementptr inbounds [4 x float], ptr %18, i64 0, i64 2
  %20 = load float, ptr %19, align 4, !tbaa !35
  %21 = fneg float %20
  store float %21, ptr %6, align 4, !tbaa !35
  call void @_ZN9btVector3C2ERKfS1_S1_(ptr noundef nonnull align 4 dereferenceable(16) %2, ptr noundef nonnull align 4 dereferenceable(4) %4, ptr noundef nonnull align 4 dereferenceable(4) %5, ptr noundef nonnull align 4 dereferenceable(4) %6)
  call void @llvm.lifetime.end.p0(i64 4, ptr %6) #14
  call void @llvm.lifetime.end.p0(i64 4, ptr %5) #14
  call void @llvm.lifetime.end.p0(i64 4, ptr %4) #14
  %22 = getelementptr inbounds nuw %class.btVector3, ptr %2, i32 0, i32 0
  %23 = load { <2 x float>, <2 x float> }, ptr %22, align 4
  ret { <2 x float>, <2 x float> } %23
}

; Function Attrs: inlinehint mustprogress nounwind uwtable
define linkonce_odr dso_local void @_ZN9btVector3C2ERKfS1_S1_(ptr noundef nonnull align 4 dereferenceable(16) %0, ptr noundef nonnull align 4 dereferenceable(4) %1, ptr noundef nonnull align 4 dereferenceable(4) %2, ptr noundef nonnull align 4 dereferenceable(4) %3) unnamed_addr #6 comdat align 2 {
  %5 = alloca ptr, align 8
  %6 = alloca ptr, align 8
  %7 = alloca ptr, align 8
  %8 = alloca ptr, align 8
  store ptr %0, ptr %5, align 8, !tbaa !33
  store ptr %1, ptr %6, align 8, !tbaa !37
  store ptr %2, ptr %7, align 8, !tbaa !37
  store ptr %3, ptr %8, align 8, !tbaa !37
  %9 = load ptr, ptr %5, align 8
  %10 = load ptr, ptr %6, align 8, !tbaa !37
  %11 = load float, ptr %10, align 4, !tbaa !35
  %12 = getelementptr inbounds nuw %class.btVector3, ptr %9, i32 0, i32 0
  %13 = getelementptr inbounds [4 x float], ptr %12, i64 0, i64 0
  store float %11, ptr %13, align 4, !tbaa !35
  %14 = load ptr, ptr %7, align 8, !tbaa !37
  %15 = load float, ptr %14, align 4, !tbaa !35
  %16 = getelementptr inbounds nuw %class.btVector3, ptr %9, i32 0, i32 0
  %17 = getelementptr inbounds [4 x float], ptr %16, i64 0, i64 1
  store float %15, ptr %17, align 4, !tbaa !35
  %18 = load ptr, ptr %8, align 8, !tbaa !37
  %19 = load float, ptr %18, align 4, !tbaa !35
  %20 = getelementptr inbounds nuw %class.btVector3, ptr %9, i32 0, i32 0
  %21 = getelementptr inbounds [4 x float], ptr %20, i64 0, i64 2
  store float %19, ptr %21, align 4, !tbaa !35
  %22 = getelementptr inbounds nuw %class.btVector3, ptr %9, i32 0, i32 0
  %23 = getelementptr inbounds [4 x float], ptr %22, i64 0, i64 3
  store float 0.000000e+00, ptr %23, align 4, !tbaa !35
  ret void
}

; Function Attrs: mustprogress uwtable
define linkonce_odr dso_local void @_ZN26LocalSupportVertexCallbackC2ERK9btVector3(ptr noundef nonnull align 8 dereferenceable(44) %0, ptr noundef nonnull align 4 dereferenceable(16) %1) unnamed_addr #2 comdat align 2 personality ptr @__gxx_personality_v0 {
  %3 = alloca ptr, align 8
  %4 = alloca ptr, align 8
  %5 = alloca float, align 4
  %6 = alloca float, align 4
  %7 = alloca float, align 4
  %8 = alloca ptr, align 8
  %9 = alloca i32, align 4
  store ptr %0, ptr %3, align 8, !tbaa !39
  store ptr %1, ptr %4, align 8, !tbaa !33
  %10 = load ptr, ptr %3, align 8
  call void @_ZN31btInternalTriangleIndexCallbackC2Ev(ptr noundef nonnull align 8 dereferenceable(8) %10) #14
  store ptr getelementptr inbounds inrange(-16, 24) ({ [5 x ptr] }, ptr @_ZTV26LocalSupportVertexCallback, i32 0, i32 0, i32 2), ptr %10, align 8, !tbaa !18
  %11 = getelementptr inbounds nuw %class.LocalSupportVertexCallback, ptr %10, i32 0, i32 1
  call void @llvm.lifetime.start.p0(i64 4, ptr %5) #14
  store float 0.000000e+00, ptr %5, align 4, !tbaa !35
  call void @llvm.lifetime.start.p0(i64 4, ptr %6) #14
  store float 0.000000e+00, ptr %6, align 4, !tbaa !35
  call void @llvm.lifetime.start.p0(i64 4, ptr %7) #14
  store float 0.000000e+00, ptr %7, align 4, !tbaa !35
  invoke void @_ZN9btVector3C2ERKfS1_S1_(ptr noundef nonnull align 4 dereferenceable(16) %11, ptr noundef nonnull align 4 dereferenceable(4) %5, ptr noundef nonnull align 4 dereferenceable(4) %6, ptr noundef nonnull align 4 dereferenceable(4) %7)
          to label %12 unwind label %16

12:                                               ; preds = %2
  call void @llvm.lifetime.end.p0(i64 4, ptr %7) #14
  call void @llvm.lifetime.end.p0(i64 4, ptr %6) #14
  call void @llvm.lifetime.end.p0(i64 4, ptr %5) #14
  %13 = getelementptr inbounds nuw %class.LocalSupportVertexCallback, ptr %10, i32 0, i32 2
  store float 0xC3ABC16D60000000, ptr %13, align 8, !tbaa !41
  %14 = getelementptr inbounds nuw %class.LocalSupportVertexCallback, ptr %10, i32 0, i32 3
  %15 = load ptr, ptr %4, align 8, !tbaa !33
  call void @llvm.memcpy.p0.p0.i64(ptr align 4 %14, ptr align 4 %15, i64 16, i1 false), !tbaa.struct !36
  ret void

16:                                               ; preds = %2
  %17 = landingpad { ptr, i32 }
          cleanup
  %18 = extractvalue { ptr, i32 } %17, 0
  store ptr %18, ptr %8, align 8
  %19 = extractvalue { ptr, i32 } %17, 1
  store i32 %19, ptr %9, align 4
  call void @llvm.lifetime.end.p0(i64 4, ptr %7) #14
  call void @llvm.lifetime.end.p0(i64 4, ptr %6) #14
  call void @llvm.lifetime.end.p0(i64 4, ptr %5) #14
  call void @_ZN31btInternalTriangleIndexCallbackD2Ev(ptr noundef nonnull align 8 dereferenceable(8) %10) #14
  br label %20

20:                                               ; preds = %16
  %21 = load ptr, ptr %8, align 8
  %22 = load i32, ptr %9, align 4
  %23 = insertvalue { ptr, i32 } poison, ptr %21, 0
  %24 = insertvalue { ptr, i32 } %23, i32 %22, 1
  resume { ptr, i32 } %24
}

; Function Attrs: inlinehint mustprogress nounwind uwtable
define linkonce_odr dso_local noundef ptr @_ZN9btVector3cvPfEv(ptr noundef nonnull align 4 dereferenceable(16) %0) #6 comdat align 2 {
  %2 = alloca ptr, align 8
  store ptr %0, ptr %2, align 8, !tbaa !33
  %3 = load ptr, ptr %2, align 8
  %4 = getelementptr inbounds nuw %class.btVector3, ptr %3, i32 0, i32 0
  %5 = getelementptr inbounds [4 x float], ptr %4, i64 0, i64 0
  ret ptr %5
}

; Function Attrs: mustprogress uwtable
define dso_local void @_ZNK25btConvexTriangleMeshShape49batchedUnitVectorGetSupportingVertexWithoutMarginEPK9btVector3PS0_i(ptr noundef nonnull align 8 dereferenceable(128) %0, ptr noundef %1, ptr noundef %2, i32 noundef %3) unnamed_addr #4 align 2 personality ptr @__gxx_personality_v0 {
  %5 = alloca ptr, align 8
  %6 = alloca ptr, align 8
  %7 = alloca ptr, align 8
  %8 = alloca i32, align 4
  %9 = alloca i32, align 4
  %10 = alloca i32, align 4
  %11 = alloca ptr, align 8
  %12 = alloca %class.LocalSupportVertexCallback, align 8
  %13 = alloca %class.btVector3, align 4
  %14 = alloca float, align 4
  %15 = alloca float, align 4
  %16 = alloca float, align 4
  %17 = alloca ptr, align 8
  %18 = alloca i32, align 4
  %19 = alloca %class.btVector3, align 4
  %20 = alloca %class.btVector3, align 4
  store ptr %0, ptr %5, align 8, !tbaa !12
  store ptr %1, ptr %6, align 8, !tbaa !33
  store ptr %2, ptr %7, align 8, !tbaa !33
  store i32 %3, ptr %8, align 4, !tbaa !9
  %21 = load ptr, ptr %5, align 8
  call void @llvm.lifetime.start.p0(i64 4, ptr %9) #14
  store i32 0, ptr %9, align 4, !tbaa !9
  br label %22

22:                                               ; preds = %34, %4
  %23 = load i32, ptr %9, align 4, !tbaa !9
  %24 = load i32, ptr %8, align 4, !tbaa !9
  %25 = icmp slt i32 %23, %24
  br i1 %25, label %27, label %26

26:                                               ; preds = %22
  call void @llvm.lifetime.end.p0(i64 4, ptr %9) #14
  br label %37

27:                                               ; preds = %22
  %28 = load ptr, ptr %7, align 8, !tbaa !33
  %29 = load i32, ptr %9, align 4, !tbaa !9
  %30 = sext i32 %29 to i64
  %31 = getelementptr inbounds %class.btVector3, ptr %28, i64 %30
  %32 = call noundef ptr @_ZN9btVector3cvPfEv(ptr noundef nonnull align 4 dereferenceable(16) %31)
  %33 = getelementptr inbounds float, ptr %32, i64 3
  store float 0xC3ABC16D60000000, ptr %33, align 4, !tbaa !35
  br label %34

34:                                               ; preds = %27
  %35 = load i32, ptr %9, align 4, !tbaa !9
  %36 = add nsw i32 %35, 1
  store i32 %36, ptr %9, align 4, !tbaa !9
  br label %22, !llvm.loop !44

37:                                               ; preds = %26
  call void @llvm.lifetime.start.p0(i64 4, ptr %10) #14
  store i32 0, ptr %10, align 4, !tbaa !9
  br label %38

38:                                               ; preds = %74, %37
  %39 = load i32, ptr %10, align 4, !tbaa !9
  %40 = load i32, ptr %8, align 4, !tbaa !9
  %41 = icmp slt i32 %39, %40
  br i1 %41, label %43, label %42

42:                                               ; preds = %38
  call void @llvm.lifetime.end.p0(i64 4, ptr %10) #14
  br label %90

43:                                               ; preds = %38
  call void @llvm.lifetime.start.p0(i64 8, ptr %11) #14
  %44 = load ptr, ptr %6, align 8, !tbaa !33
  %45 = load i32, ptr %10, align 4, !tbaa !9
  %46 = sext i32 %45 to i64
  %47 = getelementptr inbounds %class.btVector3, ptr %44, i64 %46
  store ptr %47, ptr %11, align 8, !tbaa !33
  call void @llvm.lifetime.start.p0(i64 48, ptr %12) #14
  %48 = load ptr, ptr %11, align 8, !tbaa !33
  call void @_ZN26LocalSupportVertexCallbackC2ERK9btVector3(ptr noundef nonnull align 8 dereferenceable(44) %12, ptr noundef nonnull align 4 dereferenceable(16) %48)
  call void @llvm.lifetime.start.p0(i64 16, ptr %13) #14
  call void @llvm.lifetime.start.p0(i64 4, ptr %14) #14
  store float 0x43ABC16D60000000, ptr %14, align 4, !tbaa !35
  call void @llvm.lifetime.start.p0(i64 4, ptr %15) #14
  store float 0x43ABC16D60000000, ptr %15, align 4, !tbaa !35
  call void @llvm.lifetime.start.p0(i64 4, ptr %16) #14
  store float 0x43ABC16D60000000, ptr %16, align 4, !tbaa !35
  invoke void @_ZN9btVector3C2ERKfS1_S1_(ptr noundef nonnull align 4 dereferenceable(16) %13, ptr noundef nonnull align 4 dereferenceable(4) %14, ptr noundef nonnull align 4 dereferenceable(4) %15, ptr noundef nonnull align 4 dereferenceable(4) %16)
          to label %49 unwind label %77

49:                                               ; preds = %43
  call void @llvm.lifetime.end.p0(i64 4, ptr %16) #14
  call void @llvm.lifetime.end.p0(i64 4, ptr %15) #14
  call void @llvm.lifetime.end.p0(i64 4, ptr %14) #14
  %50 = getelementptr inbounds nuw %class.btConvexTriangleMeshShape, ptr %21, i32 0, i32 1
  %51 = load ptr, ptr %50, align 8, !tbaa !20
  call void @llvm.lifetime.start.p0(i64 16, ptr %19) #14
  %52 = invoke { <2 x float>, <2 x float> } @_ZngRK9btVector3(ptr noundef nonnull align 4 dereferenceable(16) %13)
          to label %53 unwind label %81

53:                                               ; preds = %49
  %54 = getelementptr inbounds nuw %class.btVector3, ptr %19, i32 0, i32 0
  %55 = getelementptr inbounds nuw { <2 x float>, <2 x float> }, ptr %54, i32 0, i32 0
  %56 = extractvalue { <2 x float>, <2 x float> } %52, 0
  store <2 x float> %56, ptr %55, align 4
  %57 = getelementptr inbounds nuw { <2 x float>, <2 x float> }, ptr %54, i32 0, i32 1
  %58 = extractvalue { <2 x float>, <2 x float> } %52, 1
  store <2 x float> %58, ptr %57, align 4
  %59 = load ptr, ptr %51, align 8, !tbaa !18
  %60 = getelementptr inbounds ptr, ptr %59, i64 2
  %61 = load ptr, ptr %60, align 8
  invoke void %61(ptr noundef nonnull align 8 dereferenceable(24) %51, ptr noundef %12, ptr noundef nonnull align 4 dereferenceable(16) %19, ptr noundef nonnull align 4 dereferenceable(16) %13)
          to label %62 unwind label %81

62:                                               ; preds = %53
  call void @llvm.lifetime.end.p0(i64 16, ptr %19) #14
  call void @llvm.lifetime.start.p0(i64 16, ptr %20) #14
  %63 = invoke { <2 x float>, <2 x float> } @_ZN26LocalSupportVertexCallback21GetSupportVertexLocalEv(ptr noundef nonnull align 8 dereferenceable(44) %12)
          to label %64 unwind label %85

64:                                               ; preds = %62
  %65 = getelementptr inbounds nuw %class.btVector3, ptr %20, i32 0, i32 0
  %66 = getelementptr inbounds nuw { <2 x float>, <2 x float> }, ptr %65, i32 0, i32 0
  %67 = extractvalue { <2 x float>, <2 x float> } %63, 0
  store <2 x float> %67, ptr %66, align 4
  %68 = getelementptr inbounds nuw { <2 x float>, <2 x float> }, ptr %65, i32 0, i32 1
  %69 = extractvalue { <2 x float>, <2 x float> } %63, 1
  store <2 x float> %69, ptr %68, align 4
  %70 = load ptr, ptr %7, align 8, !tbaa !33
  %71 = load i32, ptr %10, align 4, !tbaa !9
  %72 = sext i32 %71 to i64
  %73 = getelementptr inbounds %class.btVector3, ptr %70, i64 %72
  call void @llvm.memcpy.p0.p0.i64(ptr align 4 %73, ptr align 4 %20, i64 16, i1 false), !tbaa.struct !36
  call void @llvm.lifetime.end.p0(i64 16, ptr %20) #14
  call void @llvm.lifetime.end.p0(i64 16, ptr %13) #14
  call void @_ZN31btInternalTriangleIndexCallbackD2Ev(ptr noundef nonnull align 8 dereferenceable(44) %12) #14
  call void @llvm.lifetime.end.p0(i64 48, ptr %12) #14
  call void @llvm.lifetime.end.p0(i64 8, ptr %11) #14
  br label %74

74:                                               ; preds = %64
  %75 = load i32, ptr %10, align 4, !tbaa !9
  %76 = add nsw i32 %75, 1
  store i32 %76, ptr %10, align 4, !tbaa !9
  br label %38, !llvm.loop !46

77:                                               ; preds = %43
  %78 = landingpad { ptr, i32 }
          cleanup
  %79 = extractvalue { ptr, i32 } %78, 0
  store ptr %79, ptr %17, align 8
  %80 = extractvalue { ptr, i32 } %78, 1
  store i32 %80, ptr %18, align 4
  call void @llvm.lifetime.end.p0(i64 4, ptr %16) #14
  call void @llvm.lifetime.end.p0(i64 4, ptr %15) #14
  call void @llvm.lifetime.end.p0(i64 4, ptr %14) #14
  br label %89

81:                                               ; preds = %53, %49
  %82 = landingpad { ptr, i32 }
          cleanup
  %83 = extractvalue { ptr, i32 } %82, 0
  store ptr %83, ptr %17, align 8
  %84 = extractvalue { ptr, i32 } %82, 1
  store i32 %84, ptr %18, align 4
  call void @llvm.lifetime.end.p0(i64 16, ptr %19) #14
  br label %89

85:                                               ; preds = %62
  %86 = landingpad { ptr, i32 }
          cleanup
  %87 = extractvalue { ptr, i32 } %86, 0
  store ptr %87, ptr %17, align 8
  %88 = extractvalue { ptr, i32 } %86, 1
  store i32 %88, ptr %18, align 4
  call void @llvm.lifetime.end.p0(i64 16, ptr %20) #14
  br label %89

89:                                               ; preds = %85, %81, %77
  call void @llvm.lifetime.end.p0(i64 16, ptr %13) #14
  call void @_ZN31btInternalTriangleIndexCallbackD2Ev(ptr noundef nonnull align 8 dereferenceable(44) %12) #14
  call void @llvm.lifetime.end.p0(i64 48, ptr %12) #14
  call void @llvm.lifetime.end.p0(i64 8, ptr %11) #14
  call void @llvm.lifetime.end.p0(i64 4, ptr %10) #14
  br label %91

90:                                               ; preds = %42
  ret void

91:                                               ; preds = %89
  %92 = load ptr, ptr %17, align 8
  %93 = load i32, ptr %18, align 4
  %94 = insertvalue { ptr, i32 } poison, ptr %92, 0
  %95 = insertvalue { ptr, i32 } %94, i32 %93, 1
  resume { ptr, i32 } %95
}